target datalayout = "e-m:e-p270:32:32-p271:32:32-p272:64:64-i64:64-i128:128-f80:128-n8:16:32:64-S128"
target triple = "x86_64-unknown-linux-gnu"

; Function Attrs: mustprogress uwtable
define dso_local void @_ZN22b3CpuRigidBodyPipeline14stepSimulationEf(ptr noundef nonnull align 8 dereferenceable(16) %this, float noundef %deltaTime) unnamed_addr #0 align 2 {
entry:
  %this.addr = alloca ptr, align 8
  %deltaTime.addr = alloca float, align 4
  store ptr %this, ptr %this.addr, align 8
  store float %deltaTime, ptr %deltaTime.addr, align 4
  %this1 = load ptr, ptr %this.addr, align 8
  %vtable = load ptr, ptr %this1, align 8
  %vfn = getelementptr inbounds ptr, ptr %vtable, i64 4
  %0 = load ptr, ptr %vfn, align 8
  call void %0(ptr noundef nonnull align 8 dereferenceable(16) %this1)
  %vtable2 = load ptr, ptr %this1, align 8
  %vfn3 = getelementptr inbounds ptr, ptr %vtable2, i64 5
  %1 = load ptr, ptr %vfn3, align 8
  call void %1(ptr noundef nonnull align 8 dereferenceable(16) %this1)
  %vtable4 = load ptr, ptr %this1, align 8
  %vfn5 = getelementptr inbounds ptr, ptr %vtable4, i64 6
  %2 = load ptr, ptr %vfn5, align 8
  call void %2(ptr noundef nonnull align 8 dereferenceable(16) %this1)
  %3 = load float, ptr %deltaTime.addr, align 4
  %vtable6 = load ptr, ptr %this1, align 8
  %vfn7 = getelementptr inbounds ptr, ptr %vtable6, i64 3
  %4 = load ptr, ptr %vfn7, align 8
  call void %4(ptr noundef nonnull align 8 dereferenceable(16) %this1, float noundef %3)
  ret void
}